target datalayout = "e-m:e-p270:32:32-p271:32:32-p272:64:64-i64:64-i128:128-f80:128-n8:16:32:64-S128"
target triple = "x86_64-pc-linux-gnu"

%struct.eio_obj = type { i32, ptr, ptr, i8 }
%struct.client_io_info = type { i32, ptr, %struct.io_hdr_t, ptr, i32, i8, ptr, ptr, i32, i8, i32, i32, i8, i32, i8 }
%struct.io_hdr_t = type { i32, i16, i16, i32 }
%struct.io_operations = type { ptr, ptr, ptr, ptr, ptr, ptr, ptr, i32 }
%struct.stepd_step_rec_t = type { ptr, ptr, i32, %union.pthread_cond_t, %union.pthread_mutex_t, %struct.slurm_step_id_msg, i32, i32, i32, i32, i32, i32, ptr, ptr, i32, i32, ptr, i32, i32, i32, i32, i32, ptr, ptr, ptr, ptr, i32, i32, i64, i64, i16, i32, ptr, ptr, ptr, i32, ptr, i32, ptr, i32, ptr, i16, i32, i32, i32, ptr, i32, ptr, ptr, ptr, ptr, i32, i32, ptr, ptr, i8, i8, i8, i64, i32, ptr, ptr, ptr, ptr, ptr, ptr, ptr, ptr, ptr, ptr, i32, i32, ptr, i8, %union.pthread_cond_t, %union.pthread_mutex_t, i64, ptr, i32, i32, i32, ptr, i64, ptr, ptr, i8, ptr, i16, ptr, ptr, ptr, ptr, ptr, ptr, i64, ptr, i64, ptr, i16, i8, i16, i32, ptr, i16, ptr, ptr, i16, ptr, ptr, ptr, i8 }
%struct.slurm_step_id_msg = type { i64, i32, i32, i32 }
%union.pthread_cond_t = type { %struct.__pthread_cond_s }
%struct.__pthread_cond_s = type { %union.__atomic_wide_counter, %union.__atomic_wide_counter, [2 x i32], [2 x i32], i32, i32, [2 x i32] }
%union.__atomic_wide_counter = type { i64 }
%union.pthread_mutex_t = type { %struct.__pthread_mutex_s }
%struct.__pthread_mutex_s = type { i32, i32, i32, i32, i32, i16, i16, %struct.__pthread_internal_list }
%struct.__pthread_internal_list = type { ptr, ptr }
%struct.io_buf = type { i32, i32, ptr }

@.str.12 = private unnamed_addr constant [5 x i8] c"io.c\00", align 1
@.str.23 = private unnamed_addr constant [24 x i8] c"Called _client_readable\00", align 1
@.str.24 = private unnamed_addr constant [16 x i8] c"  false, in_eof\00", align 1
@.str.25 = private unnamed_addr constant [18 x i8] c"  false, shutdown\00", align 1
@.str.26 = private unnamed_addr constant [8 x i8] c"  false\00", align 1
@__func__._alloc_io_buf = private unnamed_addr constant [14 x i8] c"_alloc_io_buf\00", align 1

; Function Attrs: nounwind uwtable
define internal ptr @_alloc_io_buf() #0 {
  %1 = alloca ptr, align 8
  call void @llvm.lifetime.start.p0(i64 8, ptr %1) #10
  %2 = call ptr @slurm_xcalloc(i64 noundef 1, i64 noundef 16, i1 noundef zeroext true, i1 noundef zeroext false, ptr noundef @.str.12, i32 noundef 1948, ptr noundef @__func__._alloc_io_buf)
  store ptr %2, ptr %1, align 8
  %3 = load ptr, ptr %1, align 8
  %4 = getelementptr inbounds nuw %struct.io_buf, ptr %3, i32 0, i32 0
  store i32 0, ptr %4, align 8
  %5 = load ptr, ptr %1, align 8
  %6 = getelementptr inbounds nuw %struct.io_buf, ptr %5, i32 0, i32 1
  store i32 0, ptr %6, align 4
  %7 = call ptr @slurm_xcalloc(i64 noundef 1, i64 noundef 1035, i1 noundef zeroext true, i1 noundef zeroext false, ptr noundef @.str.12, i32 noundef 1954, ptr noundef @__func__._alloc_io_buf)
  %8 = load ptr, ptr %1, align 8
  %9 = getelementptr inbounds nuw %struct.io_buf, ptr %8, i32 0, i32 2
  store ptr %7, ptr %9, align 8
  %10 = load ptr, ptr %1, align 8
  call void @llvm.lifetime.end.p0(i64 8, ptr %1) #10
  ret ptr %10
}

; Function Attrs: nounwind uwtable
define internal zeroext i1 @_incoming_buf_free(ptr noundef %0) #0 {
  %2 = alloca i1, align 1
  %3 = alloca ptr, align 8
  %4 = alloca ptr, align 8
  %5 = alloca i32, align 4
  store ptr %0, ptr %3, align 8
  call void @llvm.lifetime.start.p0(i64 8, ptr %4) #10
  %6 = load ptr, ptr %3, align 8
  %7 = getelementptr inbounds nuw %struct.stepd_step_rec_t, ptr %6, i32 0, i32 68
  %8 = load ptr, ptr %7, align 8
  %9 = call i32 @list_count(ptr noundef %8)
  %10 = icmp sgt i32 %9, 0
  br i1 %10, label %11, label %12

11:                                               ; preds = %1
  store i1 true, ptr %2, align 1
  store i32 1, ptr %5, align 4
  br label %29

12:                                               ; preds = %1
  %13 = load ptr, ptr %3, align 8
  %14 = getelementptr inbounds nuw %struct.stepd_step_rec_t, ptr %13, i32 0, i32 70
  %15 = load i32, ptr %14, align 8
  %16 = icmp slt i32 %15, 1024
  br i1 %16, label %17, label %27

17:                                               ; preds = %12
  %18 = call ptr @_alloc_io_buf()
  store ptr %18, ptr %4, align 8
  %19 = load ptr, ptr %3, align 8
  %20 = getelementptr inbounds nuw %struct.stepd_step_rec_t, ptr %19, i32 0, i32 68
  %21 = load ptr, ptr %20, align 8
  %22 = load ptr, ptr %4, align 8
  call void @list_enqueue(ptr noundef %21, ptr noundef %22)
  %23 = load ptr, ptr %3, align 8
  %24 = getelementptr inbounds nuw %struct.stepd_step_rec_t, ptr %23, i32 0, i32 70
  %25 = load i32, ptr %24, align 8
  %26 = add nsw i32 %25, 1
  store i32 %26, ptr %24, align 8
  store i1 true, ptr %2, align 1
  store i32 1, ptr %5, align 4
  br label %29

27:                                               ; preds = %12
  br label %28

28:                                               ; preds = %27
  store i1 false, ptr %2, align 1
  store i32 1, ptr %5, align 4
  br label %29

29:                                               ; preds = %28, %17, %11
  call void @llvm.lifetime.end.p0(i64 8, ptr %4) #10
  %30 = load i1, ptr %2, align 1
  ret i1 %30
}

; Function Attrs: nounwind uwtable
define internal zeroext i1 @_client_readable(ptr noundef %0) #0 {
  %2 = alloca i1, align 1
  %3 = alloca ptr, align 8
  %4 = alloca ptr, align 8
  %5 = alloca i32, align 4
  store ptr %0, ptr %3, align 8
  call void @llvm.lifetime.start.p0(i64 8, ptr %4) #10
  %6 = load ptr, ptr %3, align 8
  %7 = getelementptr inbounds nuw %struct.eio_obj, ptr %6, i32 0, i32 1
  %8 = load ptr, ptr %7, align 8
  store ptr %8, ptr %4, align 8
  br label %9

9:                                                ; preds = %1
  br label %10

10:                                               ; preds = %9
  %11 = call i32 @get_log_level()
  %12 = icmp sge i32 %11, 9
  br i1 %12, label %13, label %14

13:                                               ; preds = %10
  call void (i32, ptr, ...) @log_var(i32 noundef 9, ptr noundef @.str.23)
  br label %14

14:                                               ; preds = %13, %10
  br label %15

15:                                               ; preds = %14
  br label %16

16:                                               ; preds = %15
  br label %17

17:                                               ; preds = %16
  br label %18

18:                                               ; preds = %17
  %19 = load ptr, ptr %4, align 8
  %20 = getelementptr inbounds nuw %struct.client_io_info, ptr %19, i32 0, i32 5
  %21 = load i8, ptr %20, align 4, !range !8, !noundef !9
  %22 = trunc i8 %21 to i1
  br i1 %22, label %23, label %38

23:                                               ; preds = %18
  br label %24

24:                                               ; preds = %23
  br label %25

25:                                               ; preds = %24
  %26 = call i32 @get_log_level()
  %27 = icmp sge i32 %26, 9
  br i1 %27, label %28, label %29

28:                                               ; preds = %25
  call void (i32, ptr, ...) @log_var(i32 noundef 9, ptr noundef @.str.24)
  br label %29

29:                                               ; preds = %28, %25
  br label %30

30:                                               ; preds = %29
  br label %31

31:                                               ; preds = %30
  br label %32

32:                                               ; preds = %31
  br label %33

33:                                               ; preds = %32
  %34 = load ptr, ptr %3, align 8
  %35 = getelementptr inbounds nuw %struct.eio_obj, ptr %34, i32 0, i32 2
  %36 = load ptr, ptr %35, align 8
  %37 = getelementptr inbounds nuw %struct.io_operations, ptr %36, i32 0, i32 3
  store ptr null, ptr %37, align 8
  store i1 false, ptr %2, align 1
  store i32 1, ptr %5, align 4
  br label %82

38:                                               ; preds = %18
  %39 = load ptr, ptr %3, align 8
  %40 = getelementptr inbounds nuw %struct.eio_obj, ptr %39, i32 0, i32 3
  %41 = load i8, ptr %40, align 8, !range !8, !noundef !9
  %42 = trunc i8 %41 to i1
  br i1 %42, label %43, label %60

43:                                               ; preds = %38
  br label %44

44:                                               ; preds = %43
  br label %45

45:                                               ; preds = %44
  %46 = call i32 @get_log_level()
  %47 = icmp sge i32 %46, 9
  br i1 %47, label %48, label %49

48:                                               ; preds = %45
  call void (i32, ptr, ...) @log_var(i32 noundef 9, ptr noundef @.str.25)
  br label %49

49:                                               ; preds = %48, %45
  br label %50

50:                                               ; preds = %49
  br label %51

51:                                               ; preds = %50
  br label %52

52:                                               ; preds = %51
  br label %53

53:                                               ; preds = %52
  %54 = load ptr, ptr %3, align 8
  %55 = getelementptr inbounds nuw %struct.eio_obj, ptr %54, i32 0, i32 0
  %56 = load i32, ptr %55, align 8
  %57 = call i32 @shutdown(i32 noundef %56, i32 noundef 0) #10
  %58 = load ptr, ptr %4, align 8
  %59 = getelementptr inbounds nuw %struct.client_io_info, ptr %58, i32 0, i32 5
  store i8 1, ptr %59, align 4
  store i1 false, ptr %2, align 1
  store i32 1, ptr %5, align 4
  br label %82

60:                                               ; preds = %38
  %61 = load ptr, ptr %4, align 8
  %62 = getelementptr inbounds nuw %struct.client_io_info, ptr %61, i32 0, i32 3
  %63 = load ptr, ptr %62, align 8
  %64 = icmp ne ptr %63, null
  br i1 %64, label %70, label %65

65:                                               ; preds = %60
  %66 = load ptr, ptr %4, align 8
  %67 = getelementptr inbounds nuw %struct.client_io_info, ptr %66, i32 0, i32 1
  %68 = load ptr, ptr %67, align 8
  %69 = call zeroext i1 @_incoming_buf_free(ptr noundef %68)
  br i1 %69, label %70, label %71

70:                                               ; preds = %65, %60
  store i1 true, ptr %2, align 1
  store i32 1, ptr %5, align 4
  br label %82

71:                                               ; preds = %65
  br label %72

72:                                               ; preds = %71
  br label %73

73:                                               ; preds = %72
  %74 = call i32 @get_log_level()
  %75 = icmp sge i32 %74, 9
  br i1 %75, label %76, label %77

76:                                               ; preds = %73
  call void (i32, ptr, ...) @log_var(i32 noundef 9, ptr noundef @.str.26)
  br label %77

77:                                               ; preds = %76, %73
  br label %78

78:                                               ; preds = %77
  br label %79

79:                                               ; preds = %78
  br label %80

80:                                               ; preds = %79
  br label %81

81:                                               ; preds = %80
  store i1 false, ptr %2, align 1
  store i32 1, ptr %5, align 4
  br label %82

82:                                               ; preds = %81, %70, %53, %33
  call void @llvm.lifetime.end.p0(i64 8, ptr %4) #10
  %83 = load i1, ptr %2, align 1
  ret i1 %83
}