; Function Attrs: nounwind uwtable
define internal noundef zeroext i1 @_client_readable(ptr noundef readonly captures(none) %0) #0 {
  %2 = getelementptr inbounds nuw i8, ptr %0, i64 8
  %3 = load ptr, ptr %2, align 8
  %4 = tail call i32 @get_log_level() #11
  %5 = icmp sgt i32 %4, 8
  br i1 %5, label %6, label %7

6:                                                ; preds = %1
  tail call void (i32, ptr, ...) @log_var(i32 noundef 9, ptr noundef nonnull @.str.23) #11
  br label %7

7:                                                ; preds = %6, %1
  %8 = getelementptr inbounds nuw i8, ptr %3, i64 44
  %9 = load i8, ptr %8, align 4, !range !8, !noundef !9
  %10 = trunc nuw i8 %9 to i1
  br i1 %10, label %11, label %19

11:                                               ; preds = %7
  %12 = tail call i32 @get_log_level() #11
  %13 = icmp sgt i32 %12, 8
  br i1 %13, label %14, label %15

14:                                               ; preds = %11
  tail call void (i32, ptr, ...) @log_var(i32 noundef 9, ptr noundef nonnull @.str.24) #11
  br label %15

15:                                               ; preds = %14, %11
  %16 = getelementptr inbounds nuw i8, ptr %0, i64 16
  %17 = load ptr, ptr %16, align 8
  %18 = getelementptr inbounds nuw i8, ptr %17, i64 24
  store ptr null, ptr %18, align 8
  br label %_incoming_buf_free.exit.thread

19:                                               ; preds = %7
  %20 = getelementptr inbounds nuw i8, ptr %0, i64 24
  %21 = load i8, ptr %20, align 8, !range !8, !noundef !9
  %22 = trunc nuw i8 %21 to i1
  br i1 %22, label %23, label %30

23:                                               ; preds = %19
  %24 = tail call i32 @get_log_level() #11
  %25 = icmp sgt i32 %24, 8
  br i1 %25, label %26, label %27

26:                                               ; preds = %23
  tail call void (i32, ptr, ...) @log_var(i32 noundef 9, ptr noundef nonnull @.str.25) #11
  br label %27

27:                                               ; preds = %26, %23
  %28 = load i32, ptr %0, align 8
  %29 = tail call i32 @shutdown(i32 noundef %28, i32 noundef 0) #11
  store i8 1, ptr %8, align 4
  br label %_incoming_buf_free.exit.thread

30:                                               ; preds = %19
  %31 = getelementptr inbounds nuw i8, ptr %3, i64 32
  %32 = load ptr, ptr %31, align 8
  %.not = icmp eq ptr %32, null
  br i1 %.not, label %33, label %_incoming_buf_free.exit.thread

33:                                               ; preds = %30
  %34 = getelementptr inbounds nuw i8, ptr %3, i64 8
  %35 = load ptr, ptr %34, align 8
  %36 = getelementptr inbounds nuw i8, ptr %35, i64 528
  %37 = load ptr, ptr %36, align 8
  %38 = tail call i32 @list_count(ptr noundef %37) #11
  %39 = icmp sgt i32 %38, 0
  br i1 %39, label %_incoming_buf_free.exit.thread, label %40

40:                                               ; preds = %33
  %41 = getelementptr inbounds nuw i8, ptr %35, i64 544
  %42 = load i32, ptr %41, align 8
  %43 = icmp slt i32 %42, 1024
  br i1 %43, label %44, label %_incoming_buf_free.exit

44:                                               ; preds = %40
  %45 = tail call ptr @slurm_xcalloc(i64 noundef 1, i64 noundef 16, i1 noundef zeroext true, i1 noundef zeroext false, ptr noundef nonnull @.str.12, i32 noundef 1948, ptr noundef nonnull @__func__._alloc_io_buf) #11
  store i32 0, ptr %45, align 8
  %46 = getelementptr inbounds nuw i8, ptr %45, i64 4
  store i32 0, ptr %46, align 4
  %47 = tail call ptr @slurm_xcalloc(i64 noundef 1, i64 noundef 1035, i1 noundef zeroext true, i1 noundef zeroext false, ptr noundef nonnull @.str.12, i32 noundef 1954, ptr noundef nonnull @__func__._alloc_io_buf) #11
  %48 = getelementptr inbounds nuw i8, ptr %45, i64 8
  store ptr %47, ptr %48, align 8
  %49 = load ptr, ptr %36, align 8
  tail call void @list_enqueue(ptr noundef %49, ptr noundef nonnull %45) #11
  %50 = load i32, ptr %41, align 8
  %51 = add nsw i32 %50, 1
  store i32 %51, ptr %41, align 8
  br label %_incoming_buf_free.exit.thread

_incoming_buf_free.exit:                          ; preds = %40
  %52 = tail call i32 @get_log_level() #11
  %53 = icmp sgt i32 %52, 8
  br i1 %53, label %54, label %_incoming_buf_free.exit.thread

54:                                               ; preds = %_incoming_buf_free.exit
  tail call void (i32, ptr, ...) @log_var(i32 noundef 9, ptr noundef nonnull @.str.26) #11
  br label %_incoming_buf_free.exit.thread

_incoming_buf_free.exit.thread:                   ; preds = %33, %44, %_incoming_buf_free.exit, %54, %30, %27, %15
  %.0 = phi i1 [ false, %15 ], [ false, %27 ], [ true, %30 ], [ false, %54 ], [ false, %_incoming_buf_free.exit ], [ true, %44 ], [ true, %33 ]
  ret i1 %.0
}